target datalayout = "e-m:e-p270:32:32-p271:32:32-p272:64:64-i64:64-i128:128-f80:128-n8:16:32:64-S128"
target triple = "x86_64-pc-linux-gnu"

%struct.Emb_Man_t_ = type { ptr, ptr, ptr, i32, i32, i32, ptr, i32, i32, ptr, i32, i32, ptr, ptr, ptr, ptr }

@.str.7 = private unnamed_addr constant [2 x i8] c"\0A\00", align 1
@.str.28 = private unnamed_addr constant [5 x i8] c"%4d \00", align 1

; Function Attrs: inlinehint nounwind uwtable
define internal ptr @Emb_ManSol(ptr noundef %0, i32 noundef %1) #4 {
  %3 = alloca ptr, align 8
  %4 = alloca i32, align 4
  store ptr %0, ptr %3, align 8, !tbaa !15
  store i32 %1, ptr %4, align 4, !tbaa !12
  %5 = load ptr, ptr %3, align 8, !tbaa !15
  %6 = getelementptr inbounds nuw %struct.Emb_Man_t_, ptr %5, i32 0, i32 14
  %7 = load ptr, ptr %6, align 8, !tbaa !88
  %8 = load i32, ptr %4, align 4, !tbaa !12
  %9 = load ptr, ptr %3, align 8, !tbaa !15
  %10 = getelementptr inbounds nuw %struct.Emb_Man_t_, ptr %9, i32 0, i32 3
  %11 = load i32, ptr %10, align 8, !tbaa !32
  %12 = mul nsw i32 %8, %11
  %13 = sext i32 %12 to i64
  %14 = getelementptr inbounds float, ptr %7, i64 %13
  ret ptr %14
}

; Function Attrs: nounwind uwtable
define void @Emb_ManPrintSolutions(ptr noundef %0, i32 noundef %1) #0 {
  %3 = alloca ptr, align 8
  %4 = alloca i32, align 4
  %5 = alloca ptr, align 8
  %6 = alloca i32, align 4
  %7 = alloca i32, align 4
  store ptr %0, ptr %3, align 8, !tbaa !15
  store i32 %1, ptr %4, align 4, !tbaa !12
  call void @llvm.lifetime.start.p0(i64 8, ptr %5) #12
  call void @llvm.lifetime.start.p0(i64 4, ptr %6) #12
  call void @llvm.lifetime.start.p0(i64 4, ptr %7) #12
  store i32 0, ptr %6, align 4, !tbaa !12
  br label %8

8:                                                ; preds = %36, %2
  %9 = load i32, ptr %6, align 4, !tbaa !12
  %10 = load i32, ptr %4, align 4, !tbaa !12
  %11 = icmp slt i32 %9, %10
  br i1 %11, label %12, label %39

12:                                               ; preds = %8
  %13 = load ptr, ptr %3, align 8, !tbaa !15
  %14 = load i32, ptr %6, align 4, !tbaa !12
  %15 = call ptr @Emb_ManSol(ptr noundef %13, i32 noundef %14)
  store ptr %15, ptr %5, align 8, !tbaa !107
  store i32 0, ptr %7, align 4, !tbaa !12
  br label %16

16:                                               ; preds = %31, %12
  %17 = load i32, ptr %7, align 4, !tbaa !12
  %18 = load ptr, ptr %3, align 8, !tbaa !15
  %19 = getelementptr inbounds nuw %struct.Emb_Man_t_, ptr %18, i32 0, i32 3
  %20 = load i32, ptr %19, align 8, !tbaa !32
  %21 = icmp slt i32 %17, %20
  br i1 %21, label %22, label %34

22:                                               ; preds = %16
  %23 = load ptr, ptr %5, align 8, !tbaa !107
  %24 = load i32, ptr %7, align 4, !tbaa !12
  %25 = sext i32 %24 to i64
  %26 = getelementptr inbounds float, ptr %23, i64 %25
  %27 = load float, ptr %26, align 4, !tbaa !110
  %28 = fmul float 1.000000e+02, %27
  %29 = fptosi float %28 to i32
  %30 = call i32 (ptr, ...) @printf(ptr noundef @.str.28, i32 noundef %29)
  br label %31

31:                                               ; preds = %22
  %32 = load i32, ptr %7, align 4, !tbaa !12
  %33 = add nsw i32 %32, 1
  store i32 %33, ptr %7, align 4, !tbaa !12
  br label %16, !llvm.loop !160

34:                                               ; preds = %16
  %35 = call i32 (ptr, ...) @printf(ptr noundef @.str.7)
  br label %36

36:                                               ; preds = %34
  %37 = load i32, ptr %6, align 4, !tbaa !12
  %38 = add nsw i32 %37, 1
  store i32 %38, ptr %6, align 4, !tbaa !12
  br label %8, !llvm.loop !161

39:                                               ; preds = %8
  call void @llvm.lifetime.end.p0(i64 4, ptr %7) #12
  call void @llvm.lifetime.end.p0(i64 4, ptr %6) #12
  call void @llvm.lifetime.end.p0(i64 8, ptr %5) #12
  ret void
}