; Function Attrs: nofree nounwind uwtable
define void @Emb_ManPrintSolutions(ptr noundef readonly captures(none) %0, i32 noundef %1) local_unnamed_addr #8 {
  %3 = icmp sgt i32 %1, 0
  br i1 %3, label %.lr.ph14, label %._crit_edge15

.lr.ph14:                                         ; preds = %2
  %4 = getelementptr i8, ptr %0, i64 24
  %5 = getelementptr i8, ptr %0, i64 88
  br label %6

6:                                                ; preds = %.lr.ph14, %._crit_edge
  %.0912 = phi i32 [ 0, %.lr.ph14 ], [ %19, %._crit_edge ]
  %.val = load i32, ptr %4, align 8, !tbaa !53
  %.val10 = load ptr, ptr %5, align 8, !tbaa !80
  %7 = mul nsw i32 %.val, %.0912
  %8 = sext i32 %7 to i64
  %9 = getelementptr inbounds float, ptr %.val10, i64 %8
  %10 = icmp sgt i32 %.val, 0
  br i1 %10, label %.lr.ph, label %._crit_edge

.lr.ph:                                           ; preds = %6, %.lr.ph
  %indvars.iv = phi i64 [ %indvars.iv.next, %.lr.ph ], [ 0, %6 ]
  %11 = getelementptr inbounds nuw float, ptr %9, i64 %indvars.iv
  %12 = load float, ptr %11, align 4, !tbaa !106
  %13 = fmul float %12, 1.000000e+02
  %14 = fptosi float %13 to i32
  %15 = tail call i32 (ptr, ...) @printf(ptr noundef nonnull dereferenceable(1) @.str.28, i32 noundef %14)
  %indvars.iv.next = add nuw nsw i64 %indvars.iv, 1
  %16 = load i32, ptr %4, align 8, !tbaa !53
  %17 = sext i32 %16 to i64
  %18 = icmp slt i64 %indvars.iv.next, %17
  br i1 %18, label %.lr.ph, label %._crit_edge, !llvm.loop !153

._crit_edge:                                      ; preds = %.lr.ph, %6
  %putchar = tail call i32 @putchar(i32 10)
  %19 = add nuw nsw i32 %.0912, 1
  %exitcond.not = icmp eq i32 %19, %1
  br i1 %exitcond.not, label %._crit_edge15, label %6, !llvm.loop !154

._crit_edge15:                                    ; preds = %._crit_edge, %2
  ret void
}